	.file	"main.cpp"
	.text
	.section	.rodata
	.type	_ZStL19piecewise_construct, @object
	.size	_ZStL19piecewise_construct, 1
_ZStL19piecewise_construct:
	.zero	1
	.local	_ZStL8__ioinit
	.comm	_ZStL8__ioinit,1,1
	.text
	.globl	main
	.type	main, @function
main:
.LFB1515:
	.cfi_startproc
	leal	4(%esp), %ecx
	.cfi_def_cfa 1, 0
	andl	$-16, %esp
	pushl	-4(%ecx)
	pushl	%ebp
	.cfi_escape 0x10,0x5,0x2,0x75,0
	movl	%esp, %ebp
	pushl	%ebx
	pushl	%ecx
	.cfi_escape 0xf,0x3,0x75,0x78,0x6
	.cfi_escape 0x10,0x3,0x2,0x75,0x7c
	subl	$16, %esp
	call	__x86.get_pc_thunk.bx
	addl	$_GLOBAL_OFFSET_TABLE_, %ebx
	movl	$5, -12(%ebp)
	cmpl	$5, -12(%ebp)
	sete	%al
	movb	%al, -13(%ebp)
	cmpb	$0, -13(%ebp)
	je	.L2
	subl	$8, %esp
	pushl	-12(%ebp)
	movl	_ZSt4cout@GOT(%ebx), %eax
	pushl	%eax
	call	_ZNSolsEi@PLT
	addl	$16, %esp
	movl	%eax, %edx
	subl	$8, %esp
	movl	_ZSt4endlIcSt11char_traitsIcEERSt13basic_ostreamIT_T0_ES6_@GOT(%ebx), %eax
	pushl	%eax
	pushl	%edx
	call	_ZNSolsEPFRSoS_E@PLT
	addl	$16, %esp
.L2:
	movl	$0, %eax
	leal	-8(%ebp), %esp
	popl	%ecx
	.cfi_restore 1
	.cfi_def_cfa 1, 0
	popl	%ebx
	.cfi_restore 3
	popl	%ebp
	.cfi_restore 5
	leal	-4(%ecx), %esp
	.cfi_def_cfa 4, 4
	ret
	.cfi_endproc
.LFE1515:
	.size	main, .-main
	.type	_Z41__static_initialization_and_destruction_0ii, @function
_Z41__static_initialization_and_destruction_0ii:
.LFB2001:
	.cfi_startproc
	pushl	%ebp
	.cfi_def_cfa_offset 8
	.cfi_offset 5, -8
	movl	%esp, %ebp
	.cfi_def_cfa_register 5
	pushl	%ebx
	subl	$4, %esp
	.cfi_offset 3, -12
	call	__x86.get_pc_thunk.bx
	addl	$_GLOBAL_OFFSET_TABLE_, %ebx
	cmpl	$1, 8(%ebp)
	jne	.L6
	cmpl	$65535, 12(%ebp)
	jne	.L6
	subl	$12, %esp
	leal	_ZStL8__ioinit@GOTOFF(%ebx), %eax
	pushl	%eax
	call	_ZNSt8ios_base4InitC1Ev@PLT
	addl	$16, %esp
	subl	$4, %esp
	leal	__dso_handle@GOTOFF(%ebx), %eax
	pushl	%eax
	leal	_ZStL8__ioinit@GOTOFF(%ebx), %eax
	pushl	%eax
	movl	_ZNSt8ios_base4InitD1Ev@GOT(%ebx), %eax
	pushl	%eax
	call	__cxa_atexit@PLT
	addl	$16, %esp
.L6:
	nop
	movl	-4(%ebp), %ebx
	leave
	.cfi_restore 5
	.cfi_restore 3
	.cfi_def_cfa 4, 4
	ret
	.cfi_endproc
.LFE2001:
	.size	_Z41__static_initialization_and_destruction_0ii, .-_Z41__static_initialization_and_destruction_0ii
	.type	_GLOBAL__sub_I_main, @function
_GLOBAL__sub_I_main:
.LFB2002:
	.cfi_startproc
	pushl	%ebp
	.cfi_def_cfa_offset 8
	.cfi_offset 5, -8
	movl	%esp, %ebp
	.cfi_def_cfa_register 5
	subl	$8, %esp
	call	__x86.get_pc_thunk.ax
	addl	$_GLOBAL_OFFSET_TABLE_, %eax
	subl	$8, %esp
	pushl	$65535
	pushl	$1
	call	_Z41__static_initialization_and_destruction_0ii
	addl	$16, %esp
	leave
	.cfi_restore 5
	.cfi_def_cfa 4, 4
	ret
	.cfi_endproc
.LFE2002:
	.size	_GLOBAL__sub_I_main, .-_GLOBAL__sub_I_main
	.section	.init_array,"aw"
	.align 4
	.long	_GLOBAL__sub_I_main
	.section	.text.__x86.get_pc_thunk.ax,"axG",@progbits,__x86.get_pc_thunk.ax,comdat
	.globl	__x86.get_pc_thunk.ax
	.hidden	__x86.get_pc_thunk.ax
	.type	__x86.get_pc_thunk.ax, @function
__x86.get_pc_thunk.ax:
.LFB2003:
	.cfi_startproc
	movl	(%esp), %eax
	ret
	.cfi_endproc
.LFE2003:
	.section	.text.__x86.get_pc_thunk.bx,"axG",@progbits,__x86.get_pc_thunk.bx,comdat
	.globl	__x86.get_pc_thunk.bx
	.hidden	__x86.get_pc_thunk.bx
	.type	__x86.get_pc_thunk.bx, @function
__x86.get_pc_thunk.bx:
.LFB2004:
	.cfi_startproc
	movl	(%esp), %ebx
	ret
	.cfi_endproc
.LFE2004:
	.hidden	__dso_handle
	.ident	"GCC: (Debian 8.3.0-6) 8.3.0"
	.section	.note.GNU-stack,"",@progbits
